; Function Attrs: nounwind uwtable
define void @Cnf_CollectVolume(ptr noundef %0, ptr noundef %1, ptr noundef readonly captures(none) %2, ptr noundef %3) local_unnamed_addr #0 {
  tail call void @Aig_ManIncrementTravId(ptr noundef %0) #14
  %5 = getelementptr i8, ptr %2, i64 4
  %.val1113 = load i32, ptr %5, align 4
  %6 = icmp sgt i32 %.val1113, 0
  br i1 %6, label %.lr.ph, label %.critedge

.lr.ph:                                           ; preds = %4
  %7 = getelementptr i8, ptr %2, i64 8
  %8 = getelementptr i8, ptr %0, i64 312
  %.val.pre = load i32, ptr %8, align 8
  br label %9

9:                                                ; preds = %.lr.ph, %9
  %indvars.iv = phi i64 [ 0, %.lr.ph ], [ %indvars.iv.next, %9 ]
  %.val12 = load ptr, ptr %7, align 8
  %10 = getelementptr inbounds nuw ptr, ptr %.val12, i64 %indvars.iv
  %11 = load ptr, ptr %10, align 8
  %12 = getelementptr inbounds nuw i8, ptr %11, i64 32
  store i32 %.val.pre, ptr %12, align 8
  %indvars.iv.next = add nuw nsw i64 %indvars.iv, 1
  %.val11 = load i32, ptr %5, align 4
  %13 = sext i32 %.val11 to i64
  %14 = icmp slt i64 %indvars.iv.next, %13
  br i1 %14, label %9, label %.critedge, !llvm.loop !6

.critedge:                                        ; preds = %9, %4
  %15 = getelementptr inbounds nuw i8, ptr %3, i64 4
  store i32 0, ptr %15, align 4
  tail call void @Cnf_CollectVolume_rec(ptr noundef %0, ptr noundef %1, ptr noundef %3)
  ret void
}